; Function Attrs: nounwind uwtable
define internal void @IDAApolynomialFree(ptr noundef readonly captures(none) %0) #0 {
  %2 = getelementptr inbounds nuw i8, ptr %0, i64 1816
  %3 = load ptr, ptr %2, align 8, !tbaa !3
  %4 = getelementptr inbounds nuw i8, ptr %3, i64 320
  %5 = load ptr, ptr %4, align 8, !tbaa !48
  tail call void @N_VDestroy(ptr noundef %5) #9
  %6 = getelementptr inbounds nuw i8, ptr %3, i64 328
  %7 = load ptr, ptr %6, align 8, !tbaa !49
  tail call void @N_VDestroy(ptr noundef %7) #9
  %8 = getelementptr inbounds nuw i8, ptr %3, i64 160
  %9 = load i32, ptr %8, align 8, !tbaa !36
  %.not = icmp eq i32 %9, 0
  br i1 %.not, label %18, label %10

10:                                               ; preds = %1
  %11 = getelementptr inbounds nuw i8, ptr %3, i64 336
  %12 = load ptr, ptr %11, align 8, !tbaa !51
  %13 = getelementptr inbounds nuw i8, ptr %0, i64 140
  %14 = load i32, ptr %13, align 4, !tbaa !50
  tail call void @N_VDestroyVectorArray(ptr noundef %12, i32 noundef %14) #9
  %15 = getelementptr inbounds nuw i8, ptr %3, i64 344
  %16 = load ptr, ptr %15, align 8, !tbaa !52
  %17 = load i32, ptr %13, align 4, !tbaa !50
  tail call void @N_VDestroyVectorArray(ptr noundef %16, i32 noundef %17) #9
  br label %18

18:                                               ; preds = %10, %1
  %19 = getelementptr inbounds nuw i8, ptr %3, i64 96
  %20 = load ptr, ptr %19, align 8, !tbaa !23
  %21 = getelementptr inbounds nuw i8, ptr %3, i64 88
  %22 = load i64, ptr %21, align 8, !tbaa !22
  %.not3035 = icmp slt i64 %22, 0
  br i1 %.not3035, label %._crit_edge, label %.lr.ph

.lr.ph:                                           ; preds = %18
  %23 = getelementptr inbounds nuw i8, ptr %0, i64 140
  br label %24

24:                                               ; preds = %.lr.ph, %51
  %25 = phi i64 [ %22, %.lr.ph ], [ %52, %51 ]
  %.036 = phi i64 [ 0, %.lr.ph ], [ %53, %51 ]
  %26 = getelementptr inbounds nuw ptr, ptr %20, i64 %.036
  %27 = load ptr, ptr %26, align 8, !tbaa !24
  %28 = getelementptr inbounds nuw i8, ptr %27, i64 8
  %29 = load ptr, ptr %28, align 8, !tbaa !28
  %.not31 = icmp eq ptr %29, null
  br i1 %.not31, label %51, label %30

30:                                               ; preds = %24
  %31 = load ptr, ptr %29, align 8, !tbaa !79
  tail call void @N_VDestroy(ptr noundef %31) #9
  %32 = getelementptr inbounds nuw i8, ptr %29, i64 16
  %33 = load ptr, ptr %32, align 8, !tbaa !81
  %.not32 = icmp eq ptr %33, null
  br i1 %.not32, label %35, label %34

34:                                               ; preds = %30
  tail call void @N_VDestroy(ptr noundef nonnull %33) #9
  br label %35

35:                                               ; preds = %34, %30
  %36 = load i32, ptr %8, align 8, !tbaa !36
  %.not33 = icmp eq i32 %36, 0
  br i1 %.not33, label %45, label %37

37:                                               ; preds = %35
  %38 = getelementptr inbounds nuw i8, ptr %29, i64 8
  %39 = load ptr, ptr %38, align 8, !tbaa !82
  %40 = load i32, ptr %23, align 4, !tbaa !50
  tail call void @N_VDestroyVectorArray(ptr noundef %39, i32 noundef %40) #9
  %41 = getelementptr inbounds nuw i8, ptr %29, i64 24
  %42 = load ptr, ptr %41, align 8, !tbaa !83
  %.not34 = icmp eq ptr %42, null
  br i1 %.not34, label %45, label %43

43:                                               ; preds = %37
  %44 = load i32, ptr %23, align 4, !tbaa !50
  tail call void @N_VDestroyVectorArray(ptr noundef nonnull %42, i32 noundef %44) #9
  br label %45

45:                                               ; preds = %37, %43, %35
  %46 = load ptr, ptr %26, align 8, !tbaa !24
  %47 = getelementptr inbounds nuw i8, ptr %46, i64 8
  %48 = load ptr, ptr %47, align 8, !tbaa !28
  tail call void @free(ptr noundef %48) #9
  %49 = load ptr, ptr %26, align 8, !tbaa !24
  %50 = getelementptr inbounds nuw i8, ptr %49, i64 8
  store ptr null, ptr %50, align 8, !tbaa !28
  %.pre = load i64, ptr %21, align 8, !tbaa !22
  br label %51

51:                                               ; preds = %24, %45
  %52 = phi i64 [ %25, %24 ], [ %.pre, %45 ]
  %53 = add nuw nsw i64 %.036, 1
  %.not30.not = icmp slt i64 %.036, %52
  br i1 %.not30.not, label %24, label %._crit_edge, !llvm.loop !86

._crit_edge:                                      ; preds = %51, %18
  ret void
}